target datalayout = "e-m:e-p270:32:32-p271:32:32-p272:64:64-i64:64-i128:128-f80:128-n8:16:32:64-S128"
target triple = "x86_64-pc-linux-gnu"

@_ZL20_lookup_shared_first = internal thread_local global i8 0, align 1

; Function Attrs: mustprogress nounwind uwtable
define hidden noundef ptr @_ZN11SymbolTable14lookup_dynamicEPKcij(ptr noundef %0, i32 noundef %1, i32 noundef %2) #1 align 2 {
  %4 = alloca ptr, align 8
  %5 = alloca i32, align 4
  %6 = alloca i32, align 4
  %7 = alloca ptr, align 8
  store ptr %0, ptr %4, align 8
  store i32 %1, ptr %5, align 4
  store i32 %2, ptr %6, align 4
  %8 = load ptr, ptr %4, align 8
  %9 = load i32, ptr %5, align 4
  %10 = load i32, ptr %6, align 4
  %11 = zext i32 %10 to i64
  %12 = call noundef ptr @_ZN11SymbolTable9do_lookupEPKcim(ptr noundef %8, i32 noundef %9, i64 noundef %11)
  store ptr %12, ptr %7, align 8
  %13 = load ptr, ptr %7, align 8
  ret ptr %13
}

; Function Attrs: mustprogress nounwind uwtable
define hidden noundef ptr @_ZN11SymbolTable13lookup_commonEPKcij(ptr noundef %0, i32 noundef %1, i32 noundef %2) #1 align 2 {
  %4 = alloca ptr, align 8
  %5 = alloca i32, align 4
  %6 = alloca i32, align 4
  %7 = alloca ptr, align 8
  store ptr %0, ptr %4, align 8
  store i32 %1, ptr %5, align 4
  store i32 %2, ptr %6, align 4
  %8 = call align 1 ptr @llvm.threadlocal.address.p0(ptr align 1 @_ZL20_lookup_shared_first)
  %9 = load i8, ptr %8, align 1
  %10 = trunc i8 %9 to i1
  br i1 %10, label %11, label %25

11:                                               ; preds = %3
  %12 = load ptr, ptr %4, align 8
  %13 = load i32, ptr %5, align 4
  %14 = load i32, ptr %6, align 4
  %15 = call noundef ptr @_ZN11SymbolTable13lookup_sharedEPKcij(ptr noundef %12, i32 noundef %13, i32 noundef %14)
  store ptr %15, ptr %7, align 8
  %16 = load ptr, ptr %7, align 8
  %17 = icmp eq ptr %16, null
  br i1 %17, label %18, label %24

18:                                               ; preds = %11
  %19 = call align 1 ptr @llvm.threadlocal.address.p0(ptr align 1 @_ZL20_lookup_shared_first)
  store i8 0, ptr %19, align 1
  %20 = load ptr, ptr %4, align 8
  %21 = load i32, ptr %5, align 4
  %22 = load i32, ptr %6, align 4
  %23 = call noundef ptr @_ZN11SymbolTable14lookup_dynamicEPKcij(ptr noundef %20, i32 noundef %21, i32 noundef %22)
  store ptr %23, ptr %7, align 8
  br label %24

24:                                               ; preds = %18, %11
  br label %43

25:                                               ; preds = %3
  %26 = load ptr, ptr %4, align 8
  %27 = load i32, ptr %5, align 4
  %28 = load i32, ptr %6, align 4
  %29 = call noundef ptr @_ZN11SymbolTable14lookup_dynamicEPKcij(ptr noundef %26, i32 noundef %27, i32 noundef %28)
  store ptr %29, ptr %7, align 8
  %30 = load ptr, ptr %7, align 8
  %31 = icmp eq ptr %30, null
  br i1 %31, label %32, label %42

32:                                               ; preds = %25
  %33 = load ptr, ptr %4, align 8
  %34 = load i32, ptr %5, align 4
  %35 = load i32, ptr %6, align 4
  %36 = call noundef ptr @_ZN11SymbolTable13lookup_sharedEPKcij(ptr noundef %33, i32 noundef %34, i32 noundef %35)
  store ptr %36, ptr %7, align 8
  %37 = load ptr, ptr %7, align 8
  %38 = icmp ne ptr %37, null
  br i1 %38, label %39, label %41

39:                                               ; preds = %32
  %40 = call align 1 ptr @llvm.threadlocal.address.p0(ptr align 1 @_ZL20_lookup_shared_first)
  store i8 1, ptr %40, align 1
  br label %41

41:                                               ; preds = %39, %32
  br label %42

42:                                               ; preds = %41, %25
  br label %43

43:                                               ; preds = %42, %24
  %44 = load ptr, ptr %7, align 8
  ret ptr %44
}