; Function Attrs: mustprogress nounwind uwtable
define hidden noundef ptr @_ZN11SymbolTable13lookup_commonEPKcij(ptr nocapture noundef readonly %0, i32 noundef %1, i32 noundef %2) local_unnamed_addr #0 align 2 {
  %4 = tail call align 1 ptr @llvm.threadlocal.address.p0(ptr align 1 @_ZL20_lookup_shared_first)
  %5 = load i8, ptr %4, align 1
  %6 = trunc i8 %5 to i1
  br i1 %6, label %7, label %13

7:                                                ; preds = %3
  %8 = tail call noundef ptr @_ZN11SymbolTable13lookup_sharedEPKcij(ptr noundef %0, i32 noundef %1, i32 noundef %2)
  %9 = icmp eq ptr %8, null
  br i1 %9, label %10, label %20

10:                                               ; preds = %7
  store i8 0, ptr %4, align 1
  %11 = zext i32 %2 to i64
  %12 = tail call noundef ptr @_ZN11SymbolTable9do_lookupEPKcim(ptr noundef readonly %0, i32 noundef %1, i64 noundef %11)
  br label %20

13:                                               ; preds = %3
  %14 = zext i32 %2 to i64
  %15 = tail call noundef ptr @_ZN11SymbolTable9do_lookupEPKcim(ptr noundef readonly %0, i32 noundef %1, i64 noundef %14)
  %16 = icmp eq ptr %15, null
  br i1 %16, label %17, label %20

17:                                               ; preds = %13
  %18 = tail call noundef ptr @_ZN11SymbolTable13lookup_sharedEPKcij(ptr noundef %0, i32 noundef %1, i32 noundef %2)
  %.not = icmp eq ptr %18, null
  br i1 %.not, label %20, label %19

19:                                               ; preds = %17
  store i8 1, ptr %4, align 1
  br label %20

20:                                               ; preds = %13, %19, %17, %7, %10
  %.0 = phi ptr [ %12, %10 ], [ %8, %7 ], [ %18, %19 ], [ null, %17 ], [ %15, %13 ]
  ret ptr %.0
}